target datalayout = "e-m:e-p270:32:32-p271:32:32-p272:64:64-i64:64-i128:128-f80:128-n8:16:32:64-S128"
target triple = "x86_64-pc-linux-gnu"

%struct.Complex = type { double, double }

; Function Attrs: nounwind uwtable
define void @getZYZRotAnglesFromComplexPair(double %0, double %1, double %2, double %3, ptr noundef %4, ptr noundef %5, ptr noundef %6) #0 {
  %8 = alloca %struct.Complex, align 8
  %9 = alloca %struct.Complex, align 8
  %10 = alloca ptr, align 8
  %11 = alloca ptr, align 8
  %12 = alloca ptr, align 8
  %13 = alloca double, align 8
  %14 = alloca double, align 8
  %15 = alloca double, align 8
  %16 = getelementptr inbounds nuw { double, double }, ptr %8, i32 0, i32 0
  store double %0, ptr %16, align 8
  %17 = getelementptr inbounds nuw { double, double }, ptr %8, i32 0, i32 1
  store double %1, ptr %17, align 8
  %18 = getelementptr inbounds nuw { double, double }, ptr %9, i32 0, i32 0
  store double %2, ptr %18, align 8
  %19 = getelementptr inbounds nuw { double, double }, ptr %9, i32 0, i32 1
  store double %3, ptr %19, align 8
  store ptr %4, ptr %10, align 8, !tbaa !27
  store ptr %5, ptr %11, align 8, !tbaa !27
  store ptr %6, ptr %12, align 8, !tbaa !27
  call void @llvm.lifetime.start.p0(i64 8, ptr %13) #8
  %20 = getelementptr inbounds nuw %struct.Complex, ptr %8, i32 0, i32 0
  %21 = load double, ptr %20, align 8, !tbaa !19
  %22 = getelementptr inbounds nuw %struct.Complex, ptr %8, i32 0, i32 0
  %23 = load double, ptr %22, align 8, !tbaa !19
  %24 = getelementptr inbounds nuw %struct.Complex, ptr %8, i32 0, i32 1
  %25 = load double, ptr %24, align 8, !tbaa !21
  %26 = getelementptr inbounds nuw %struct.Complex, ptr %8, i32 0, i32 1
  %27 = load double, ptr %26, align 8, !tbaa !21
  %28 = fmul double %25, %27
  %29 = call double @llvm.fmuladd.f64(double %21, double %23, double %28)
  %30 = call double @sqrt(double noundef %29) #8, !tbaa !9
  store double %30, ptr %13, align 8, !tbaa !18
  %31 = load double, ptr %13, align 8, !tbaa !18
  %32 = call double @acos(double noundef %31) #8, !tbaa !9
  %33 = fmul double 2.000000e+00, %32
  %34 = load ptr, ptr %11, align 8, !tbaa !27
  store double %33, ptr %34, align 8, !tbaa !18
  call void @llvm.lifetime.start.p0(i64 8, ptr %14) #8
  %35 = getelementptr inbounds nuw %struct.Complex, ptr %8, i32 0, i32 1
  %36 = load double, ptr %35, align 8, !tbaa !21
  %37 = getelementptr inbounds nuw %struct.Complex, ptr %8, i32 0, i32 0
  %38 = load double, ptr %37, align 8, !tbaa !19
  %39 = call double @atan2(double noundef %36, double noundef %38) #8, !tbaa !9
  store double %39, ptr %14, align 8, !tbaa !18
  call void @llvm.lifetime.start.p0(i64 8, ptr %15) #8
  %40 = getelementptr inbounds nuw %struct.Complex, ptr %9, i32 0, i32 1
  %41 = load double, ptr %40, align 8, !tbaa !21
  %42 = getelementptr inbounds nuw %struct.Complex, ptr %9, i32 0, i32 0
  %43 = load double, ptr %42, align 8, !tbaa !19
  %44 = call double @atan2(double noundef %41, double noundef %43) #8, !tbaa !9
  store double %44, ptr %15, align 8, !tbaa !18
  %45 = load double, ptr %14, align 8, !tbaa !18
  %46 = fneg double %45
  %47 = load double, ptr %15, align 8, !tbaa !18
  %48 = fadd double %46, %47
  %49 = load ptr, ptr %10, align 8, !tbaa !27
  store double %48, ptr %49, align 8, !tbaa !18
  %50 = load double, ptr %14, align 8, !tbaa !18
  %51 = fneg double %50
  %52 = load double, ptr %15, align 8, !tbaa !18
  %53 = fsub double %51, %52
  %54 = load ptr, ptr %12, align 8, !tbaa !27
  store double %53, ptr %54, align 8, !tbaa !18
  call void @llvm.lifetime.end.p0(i64 8, ptr %15) #8
  call void @llvm.lifetime.end.p0(i64 8, ptr %14) #8
  call void @llvm.lifetime.end.p0(i64 8, ptr %13) #8
  ret void
}