; Function Attrs: mustprogress nofree nounwind willreturn memory(write) uwtable
define void @getZYZRotAnglesFromComplexPair(double %0, double %1, double %2, double %3, ptr noundef writeonly captures(none) initializes((0, 8)) %4, ptr noundef writeonly captures(none) initializes((0, 8)) %5, ptr noundef writeonly captures(none) initializes((0, 8)) %6) local_unnamed_addr #10 {
  %8 = fmul double %1, %1
  %9 = tail call double @llvm.fmuladd.f64(double %0, double %0, double %8)
  %sqrt = tail call double @llvm.sqrt.f64(double %9)
  %10 = tail call double @acos(double noundef %sqrt) #22, !tbaa !4
  %11 = fmul double %10, 2.000000e+00
  store double %11, ptr %5, align 8, !tbaa !13
  %12 = tail call double @atan2(double noundef %1, double noundef %0) #22, !tbaa !4
  %13 = tail call double @atan2(double noundef %3, double noundef %2) #22, !tbaa !4
  %14 = fneg double %12
  %15 = fsub double %13, %12
  store double %15, ptr %4, align 8, !tbaa !13
  %16 = fsub double %14, %13
  store double %16, ptr %6, align 8, !tbaa !13
  ret void
}